; Function Attrs: mustprogress nofree norecurse nosync nounwind willreturn memory(argmem: readwrite) uwtable
define internal void @_ZNSt17_Function_handlerIFSt8functionIFvlEEvEZN3gmxL13getConnectionILNS4_16IntegrationStageE3EEENS4_20PropagatorConnectionEPNS4_10PropagatorIXT_EEERKNS4_13PropagatorTagEEUlvE_E9_M_invokeERKSt9_Any_data(ptr dead_on_unwind noalias nocapture writable writeonly sret(%"class.std::function.109") align 8 %0, ptr nocapture noundef nonnull readonly align 8 dereferenceable(16) %1) #17 align 2 personality ptr @__gxx_personality_v0 {
  %.val = load ptr, ptr %1, align 8
  %3 = getelementptr inbounds i8, ptr %0, i64 16
  %4 = getelementptr inbounds i8, ptr %0, i64 24
  %5 = getelementptr inbounds i8, ptr %0, i64 8
  store i64 0, ptr %5, align 8, !alias.scope !809
  %6 = ptrtoint ptr %.val to i64
  store i64 %6, ptr %0, align 8, !alias.scope !809
  store ptr @_ZNSt17_Function_handlerIFvlEZN3gmx10PropagatorILNS1_16IntegrationStageE3EE23velocityScalingCallbackEvEUllE_E9_M_invokeERKSt9_Any_dataOl, ptr %4, align 8, !alias.scope !809
  store ptr @_ZNSt17_Function_handlerIFvlEZN3gmx10PropagatorILNS1_16IntegrationStageE3EE23velocityScalingCallbackEvEUllE_E10_M_managerERSt9_Any_dataRKS7_St18_Manager_operation, ptr %3, align 8, !alias.scope !809
  ret void
}